target datalayout = "e-m:e-p270:32:32-p271:32:32-p272:64:64-i64:64-i128:128-f80:128-n8:16:32:64-S128"
target triple = "x86_64-pc-linux-gnu"

@ett_raw_text = internal global i32 0, align 4
@proto_raw_sigcomp = internal global i32 0, align 4

; Function Attrs: null_pointer_is_valid sspstrong uwtable
define internal void @tvb_raw_text_add(ptr noundef %0, ptr noundef %1) #0 {
  %3 = alloca ptr, align 8
  %4 = alloca ptr, align 8
  %5 = alloca ptr, align 8
  %6 = alloca ptr, align 8
  %7 = alloca i32, align 4
  %8 = alloca i32, align 4
  %9 = alloca i32, align 4
  store ptr %0, ptr %3, align 8
  store ptr %1, ptr %4, align 8
  call void @llvm.lifetime.start.p0(i64 8, ptr %5) #10
  store ptr null, ptr %5, align 8
  call void @llvm.lifetime.start.p0(i64 8, ptr %6) #10
  store ptr null, ptr %6, align 8
  call void @llvm.lifetime.start.p0(i64 4, ptr %7) #10
  call void @llvm.lifetime.start.p0(i64 4, ptr %8) #10
  call void @llvm.lifetime.start.p0(i64 4, ptr %9) #10
  %10 = load ptr, ptr %4, align 8
  %11 = icmp ne ptr %10, null
  br i1 %11, label %12, label %20

12:                                               ; preds = %2
  %13 = load ptr, ptr %4, align 8
  %14 = load i32, ptr @proto_raw_sigcomp, align 4
  %15 = load ptr, ptr %3, align 8
  %16 = call ptr @proto_tree_add_item(ptr noundef %13, i32 noundef %14, ptr noundef %15, i32 noundef 0, i32 noundef -1, i32 noundef 0)
  store ptr %16, ptr %6, align 8
  %17 = load ptr, ptr %6, align 8
  %18 = load i32, ptr @ett_raw_text, align 4
  %19 = call ptr @proto_item_add_subtree(ptr noundef %17, i32 noundef %18)
  store ptr %19, ptr %5, align 8
  br label %20

20:                                               ; preds = %12, %2
  store i32 0, ptr %7, align 4
  br label %21

21:                                               ; preds = %25, %20
  %22 = load ptr, ptr %3, align 8
  %23 = load i32, ptr %7, align 4
  %24 = call zeroext i1 @tvb_offset_exists(ptr noundef %22, i32 noundef %23)
  br i1 %24, label %25, label %38

25:                                               ; preds = %21
  %26 = load ptr, ptr %3, align 8
  %27 = load i32, ptr %7, align 4
  %28 = call i32 @tvb_find_line_end(ptr noundef %26, i32 noundef %27, i32 noundef -1, ptr noundef %8, i1 noundef zeroext false)
  %29 = load i32, ptr %8, align 4
  %30 = load i32, ptr %7, align 4
  %31 = sub i32 %29, %30
  store i32 %31, ptr %9, align 4
  %32 = load ptr, ptr %5, align 8
  %33 = load ptr, ptr %3, align 8
  %34 = load i32, ptr %7, align 4
  %35 = load i32, ptr %9, align 4
  %36 = call ptr @proto_tree_add_format_text(ptr noundef %32, ptr noundef %33, i32 noundef %34, i32 noundef %35)
  %37 = load i32, ptr %8, align 4
  store i32 %37, ptr %7, align 4
  br label %21, !llvm.loop !32

38:                                               ; preds = %21
  call void @llvm.lifetime.end.p0(i64 4, ptr %9) #10
  call void @llvm.lifetime.end.p0(i64 4, ptr %8) #10
  call void @llvm.lifetime.end.p0(i64 4, ptr %7) #10
  call void @llvm.lifetime.end.p0(i64 8, ptr %6) #10
  call void @llvm.lifetime.end.p0(i64 8, ptr %5) #10
  ret void
}