; Function Attrs: null_pointer_is_valid sspstrong uwtable
define internal fastcc void @tvb_raw_text_add(ptr noundef nonnull %0, ptr noundef %1) unnamed_addr #0 {
  %3 = alloca i32, align 4
  call void @llvm.lifetime.start.p0(i64 4, ptr nonnull %3) #11
  %.not = icmp eq ptr %1, null
  br i1 %.not, label %9, label %4

4:                                                ; preds = %2
  %5 = load i32, ptr @proto_raw_sigcomp, align 4
  %6 = tail call ptr @proto_tree_add_item(ptr noundef nonnull %1, i32 noundef %5, ptr noundef nonnull %0, i32 noundef 0, i32 noundef -1, i32 noundef 0)
  %7 = load i32, ptr @ett_raw_text, align 4
  %8 = tail call ptr @proto_item_add_subtree(ptr noundef %6, i32 noundef %7)
  br label %9

9:                                                ; preds = %4, %2
  %.0 = phi ptr [ %8, %4 ], [ null, %2 ]
  %10 = tail call zeroext i1 @tvb_offset_exists(ptr noundef nonnull %0, i32 noundef 0)
  br i1 %10, label %.lr.ph, label %._crit_edge

.lr.ph:                                           ; preds = %9, %.lr.ph
  %.01214 = phi i32 [ %15, %.lr.ph ], [ 0, %9 ]
  %11 = call i32 @tvb_find_line_end(ptr noundef nonnull %0, i32 noundef %.01214, i32 noundef -1, ptr noundef nonnull %3, i1 noundef zeroext false)
  %12 = load i32, ptr %3, align 4
  %13 = sub i32 %12, %.01214
  %14 = call ptr @proto_tree_add_format_text(ptr noundef %.0, ptr noundef nonnull %0, i32 noundef %.01214, i32 noundef %13)
  %15 = load i32, ptr %3, align 4
  %16 = call zeroext i1 @tvb_offset_exists(ptr noundef nonnull %0, i32 noundef %15)
  br i1 %16, label %.lr.ph, label %._crit_edge, !llvm.loop !29

._crit_edge:                                      ; preds = %.lr.ph, %9
  call void @llvm.lifetime.end.p0(i64 4, ptr nonnull %3) #11
  ret void
}